target datalayout = "e-m:e-p270:32:32-p271:32:32-p272:64:64-i64:64-i128:128-f80:128-n8:16:32:64-S128"
target triple = "x86_64-pc-linux-gnu"

%struct.Rwr_Man_t_ = type { i32, ptr, ptr, ptr, ptr, ptr, ptr, ptr, ptr, ptr, ptr, ptr, i32, i32, i32, i32, i32, ptr, ptr, ptr, ptr, ptr, i32, i32, i32, i32, i32, [222 x i32], i32, i32, i32, i64, i64, i64, i64, i64, i64, i64 }

@.str = private unnamed_addr constant [23 x i8] c"Rewriting statistics:\0A\00", align 1
@.str.1 = private unnamed_addr constant [26 x i8] c"Total cuts tries  = %8d.\0A\00", align 1
@.str.2 = private unnamed_addr constant [26 x i8] c"Bad cuts found    = %8d.\0A\00", align 1
@.str.3 = private unnamed_addr constant [26 x i8] c"Total subgraphs   = %8d.\0A\00", align 1
@.str.4 = private unnamed_addr constant [26 x i8] c"Used NPN classes  = %8d.\0A\00", align 1
@.str.5 = private unnamed_addr constant [26 x i8] c"Nodes considered  = %8d.\0A\00", align 1
@.str.6 = private unnamed_addr constant [26 x i8] c"Nodes rewritten   = %8d.\0A\00", align 1
@.str.7 = private unnamed_addr constant [38 x i8] c"Gain              = %8d. (%6.2f %%).\0A\00", align 1
@.str.8 = private unnamed_addr constant [5 x i8] c"%s =\00", align 1
@.str.9 = private unnamed_addr constant [13 x i8] c"Start       \00", align 1
@.str.10 = private unnamed_addr constant [11 x i8] c"%9.2f sec\0A\00", align 1
@.str.11 = private unnamed_addr constant [13 x i8] c"Cuts        \00", align 1
@.str.12 = private unnamed_addr constant [13 x i8] c"Resynthesis \00", align 1
@.str.13 = private unnamed_addr constant [13 x i8] c"    Mffc    \00", align 1
@.str.14 = private unnamed_addr constant [13 x i8] c"    Eval    \00", align 1
@.str.15 = private unnamed_addr constant [13 x i8] c"Update      \00", align 1
@.str.16 = private unnamed_addr constant [13 x i8] c"TOTAL       \00", align 1
@.str.17 = private unnamed_addr constant [2 x i8] c"\0A\00", align 1

; Function Attrs: nounwind uwtable
define void @Rwr_ManPrintStats(ptr noundef %0) #0 {
  %2 = alloca ptr, align 8
  %3 = alloca i32, align 4
  %4 = alloca i32, align 4
  store ptr %0, ptr %2, align 8, !tbaa !9
  call void @llvm.lifetime.start.p0(i64 4, ptr %3) #9
  call void @llvm.lifetime.start.p0(i64 4, ptr %4) #9
  store i32 0, ptr %4, align 4, !tbaa !3
  store i32 0, ptr %3, align 4, !tbaa !3
  br label %5

5:                                                ; preds = %19, %1
  %6 = load i32, ptr %3, align 4, !tbaa !3
  %7 = icmp slt i32 %6, 222
  br i1 %7, label %8, label %22

8:                                                ; preds = %5
  %9 = load ptr, ptr %2, align 8, !tbaa !9
  %10 = getelementptr inbounds nuw %struct.Rwr_Man_t_, ptr %9, i32 0, i32 27
  %11 = load i32, ptr %3, align 4, !tbaa !3
  %12 = sext i32 %11 to i64
  %13 = getelementptr inbounds [222 x i32], ptr %10, i64 0, i64 %12
  %14 = load i32, ptr %13, align 4, !tbaa !3
  %15 = icmp sgt i32 %14, 0
  %16 = zext i1 %15 to i32
  %17 = load i32, ptr %4, align 4, !tbaa !3
  %18 = add nsw i32 %17, %16
  store i32 %18, ptr %4, align 4, !tbaa !3
  br label %19

19:                                               ; preds = %8
  %20 = load i32, ptr %3, align 4, !tbaa !3
  %21 = add nsw i32 %20, 1
  store i32 %21, ptr %3, align 4, !tbaa !3
  br label %5, !llvm.loop !78

22:                                               ; preds = %5
  %23 = call i32 (ptr, ...) @printf(ptr noundef @.str)
  %24 = load ptr, ptr %2, align 8, !tbaa !9
  %25 = getelementptr inbounds nuw %struct.Rwr_Man_t_, ptr %24, i32 0, i32 28
  %26 = load i32, ptr %25, align 4, !tbaa !79
  %27 = call i32 (ptr, ...) @printf(ptr noundef @.str.1, i32 noundef %26)
  %28 = load ptr, ptr %2, align 8, !tbaa !9
  %29 = getelementptr inbounds nuw %struct.Rwr_Man_t_, ptr %28, i32 0, i32 29
  %30 = load i32, ptr %29, align 8, !tbaa !80
  %31 = call i32 (ptr, ...) @printf(ptr noundef @.str.2, i32 noundef %30)
  %32 = load ptr, ptr %2, align 8, !tbaa !9
  %33 = getelementptr inbounds nuw %struct.Rwr_Man_t_, ptr %32, i32 0, i32 30
  %34 = load i32, ptr %33, align 4, !tbaa !81
  %35 = call i32 (ptr, ...) @printf(ptr noundef @.str.3, i32 noundef %34)
  %36 = load i32, ptr %4, align 4, !tbaa !3
  %37 = call i32 (ptr, ...) @printf(ptr noundef @.str.4, i32 noundef %36)
  %38 = load ptr, ptr %2, align 8, !tbaa !9
  %39 = getelementptr inbounds nuw %struct.Rwr_Man_t_, ptr %38, i32 0, i32 22
  %40 = load i32, ptr %39, align 8, !tbaa !82
  %41 = call i32 (ptr, ...) @printf(ptr noundef @.str.5, i32 noundef %40)
  %42 = load ptr, ptr %2, align 8, !tbaa !9
  %43 = getelementptr inbounds nuw %struct.Rwr_Man_t_, ptr %42, i32 0, i32 23
  %44 = load i32, ptr %43, align 4, !tbaa !83
  %45 = call i32 (ptr, ...) @printf(ptr noundef @.str.6, i32 noundef %44)
  %46 = load ptr, ptr %2, align 8, !tbaa !9
  %47 = getelementptr inbounds nuw %struct.Rwr_Man_t_, ptr %46, i32 0, i32 25
  %48 = load i32, ptr %47, align 4, !tbaa !84
  %49 = load ptr, ptr %2, align 8, !tbaa !9
  %50 = getelementptr inbounds nuw %struct.Rwr_Man_t_, ptr %49, i32 0, i32 26
  %51 = load i32, ptr %50, align 8, !tbaa !85
  %52 = sub nsw i32 %48, %51
  %53 = load ptr, ptr %2, align 8, !tbaa !9
  %54 = getelementptr inbounds nuw %struct.Rwr_Man_t_, ptr %53, i32 0, i32 25
  %55 = load i32, ptr %54, align 4, !tbaa !84
  %56 = load ptr, ptr %2, align 8, !tbaa !9
  %57 = getelementptr inbounds nuw %struct.Rwr_Man_t_, ptr %56, i32 0, i32 26
  %58 = load i32, ptr %57, align 8, !tbaa !85
  %59 = sub nsw i32 %55, %58
  %60 = sitofp i32 %59 to double
  %61 = fmul double 1.000000e+02, %60
  %62 = load ptr, ptr %2, align 8, !tbaa !9
  %63 = getelementptr inbounds nuw %struct.Rwr_Man_t_, ptr %62, i32 0, i32 25
  %64 = load i32, ptr %63, align 4, !tbaa !84
  %65 = sitofp i32 %64 to double
  %66 = fdiv double %61, %65
  %67 = call i32 (ptr, ...) @printf(ptr noundef @.str.7, i32 noundef %52, double noundef %66)
  call void (i32, ptr, ...) @Abc_Print(i32 noundef 1, ptr noundef @.str.8, ptr noundef @.str.9)
  %68 = load ptr, ptr %2, align 8, !tbaa !9
  %69 = getelementptr inbounds nuw %struct.Rwr_Man_t_, ptr %68, i32 0, i32 31
  %70 = load i64, ptr %69, align 8, !tbaa !44
  %71 = sitofp i64 %70 to double
  %72 = fmul double 1.000000e+00, %71
  %73 = fdiv double %72, 1.000000e+06
  call void (i32, ptr, ...) @Abc_Print(i32 noundef 1, ptr noundef @.str.10, double noundef %73)
  call void (i32, ptr, ...) @Abc_Print(i32 noundef 1, ptr noundef @.str.8, ptr noundef @.str.11)
  %74 = load ptr, ptr %2, align 8, !tbaa !9
  %75 = getelementptr inbounds nuw %struct.Rwr_Man_t_, ptr %74, i32 0, i32 32
  %76 = load i64, ptr %75, align 8, !tbaa !86
  %77 = sitofp i64 %76 to double
  %78 = fmul double 1.000000e+00, %77
  %79 = fdiv double %78, 1.000000e+06
  call void (i32, ptr, ...) @Abc_Print(i32 noundef 1, ptr noundef @.str.10, double noundef %79)
  call void (i32, ptr, ...) @Abc_Print(i32 noundef 1, ptr noundef @.str.8, ptr noundef @.str.12)
  %80 = load ptr, ptr %2, align 8, !tbaa !9
  %81 = getelementptr inbounds nuw %struct.Rwr_Man_t_, ptr %80, i32 0, i32 33
  %82 = load i64, ptr %81, align 8, !tbaa !87
  %83 = sitofp i64 %82 to double
  %84 = fmul double 1.000000e+00, %83
  %85 = fdiv double %84, 1.000000e+06
  call void (i32, ptr, ...) @Abc_Print(i32 noundef 1, ptr noundef @.str.10, double noundef %85)
  call void (i32, ptr, ...) @Abc_Print(i32 noundef 1, ptr noundef @.str.8, ptr noundef @.str.13)
  %86 = load ptr, ptr %2, align 8, !tbaa !9
  %87 = getelementptr inbounds nuw %struct.Rwr_Man_t_, ptr %86, i32 0, i32 35
  %88 = load i64, ptr %87, align 8, !tbaa !88
  %89 = sitofp i64 %88 to double
  %90 = fmul double 1.000000e+00, %89
  %91 = fdiv double %90, 1.000000e+06
  call void (i32, ptr, ...) @Abc_Print(i32 noundef 1, ptr noundef @.str.10, double noundef %91)
  call void (i32, ptr, ...) @Abc_Print(i32 noundef 1, ptr noundef @.str.8, ptr noundef @.str.14)
  %92 = load ptr, ptr %2, align 8, !tbaa !9
  %93 = getelementptr inbounds nuw %struct.Rwr_Man_t_, ptr %92, i32 0, i32 34
  %94 = load i64, ptr %93, align 8, !tbaa !89
  %95 = sitofp i64 %94 to double
  %96 = fmul double 1.000000e+00, %95
  %97 = fdiv double %96, 1.000000e+06
  call void (i32, ptr, ...) @Abc_Print(i32 noundef 1, ptr noundef @.str.10, double noundef %97)
  call void (i32, ptr, ...) @Abc_Print(i32 noundef 1, ptr noundef @.str.8, ptr noundef @.str.15)
  %98 = load ptr, ptr %2, align 8, !tbaa !9
  %99 = getelementptr inbounds nuw %struct.Rwr_Man_t_, ptr %98, i32 0, i32 36
  %100 = load i64, ptr %99, align 8, !tbaa !90
  %101 = sitofp i64 %100 to double
  %102 = fmul double 1.000000e+00, %101
  %103 = fdiv double %102, 1.000000e+06
  call void (i32, ptr, ...) @Abc_Print(i32 noundef 1, ptr noundef @.str.10, double noundef %103)
  call void (i32, ptr, ...) @Abc_Print(i32 noundef 1, ptr noundef @.str.8, ptr noundef @.str.16)
  %104 = load ptr, ptr %2, align 8, !tbaa !9
  %105 = getelementptr inbounds nuw %struct.Rwr_Man_t_, ptr %104, i32 0, i32 37
  %106 = load i64, ptr %105, align 8, !tbaa !91
  %107 = sitofp i64 %106 to double
  %108 = fmul double 1.000000e+00, %107
  %109 = fdiv double %108, 1.000000e+06
  call void (i32, ptr, ...) @Abc_Print(i32 noundef 1, ptr noundef @.str.10, double noundef %109)
  %110 = call i32 (ptr, ...) @printf(ptr noundef @.str.17)
  call void @llvm.lifetime.end.p0(i64 4, ptr %4) #9
  call void @llvm.lifetime.end.p0(i64 4, ptr %3) #9
  ret void
}