; Function Attrs: nounwind uwtable
define void @Rwr_ManPrintStats(ptr noundef readonly captures(none) %0) local_unnamed_addr #0 {
  %2 = getelementptr inbounds nuw i8, ptr %0, i64 180
  br label %3

3:                                                ; preds = %1, %3
  %indvars.iv = phi i64 [ 0, %1 ], [ %indvars.iv.next, %3 ]
  %.024 = phi i32 [ 0, %1 ], [ %8, %3 ]
  %4 = getelementptr inbounds nuw [222 x i32], ptr %2, i64 0, i64 %indvars.iv
  %5 = load i32, ptr %4, align 4, !tbaa !69
  %6 = icmp sgt i32 %5, 0
  %7 = zext i1 %6 to i32
  %8 = add nuw nsw i32 %.024, %7
  %indvars.iv.next = add nuw nsw i64 %indvars.iv, 1
  %exitcond.not = icmp eq i64 %indvars.iv.next, 222
  br i1 %exitcond.not, label %9, label %3, !llvm.loop !70

9:                                                ; preds = %3
  %puts = tail call i32 @puts(ptr nonnull dereferenceable(1) @str)
  %10 = getelementptr inbounds nuw i8, ptr %0, i64 1068
  %11 = load i32, ptr %10, align 4, !tbaa !71
  %12 = tail call i32 (ptr, ...) @printf(ptr noundef nonnull dereferenceable(1) @.str.1, i32 noundef %11)
  %13 = getelementptr inbounds nuw i8, ptr %0, i64 1072
  %14 = load i32, ptr %13, align 8, !tbaa !72
  %15 = tail call i32 (ptr, ...) @printf(ptr noundef nonnull dereferenceable(1) @.str.2, i32 noundef %14)
  %16 = getelementptr inbounds nuw i8, ptr %0, i64 1076
  %17 = load i32, ptr %16, align 4, !tbaa !73
  %18 = tail call i32 (ptr, ...) @printf(ptr noundef nonnull dereferenceable(1) @.str.3, i32 noundef %17)
  %19 = tail call i32 (ptr, ...) @printf(ptr noundef nonnull dereferenceable(1) @.str.4, i32 noundef %8)
  %20 = getelementptr inbounds nuw i8, ptr %0, i64 160
  %21 = load i32, ptr %20, align 8, !tbaa !74
  %22 = tail call i32 (ptr, ...) @printf(ptr noundef nonnull dereferenceable(1) @.str.5, i32 noundef %21)
  %23 = getelementptr inbounds nuw i8, ptr %0, i64 164
  %24 = load i32, ptr %23, align 4, !tbaa !75
  %25 = tail call i32 (ptr, ...) @printf(ptr noundef nonnull dereferenceable(1) @.str.6, i32 noundef %24)
  %26 = getelementptr inbounds nuw i8, ptr %0, i64 172
  %27 = load i32, ptr %26, align 4, !tbaa !76
  %28 = getelementptr inbounds nuw i8, ptr %0, i64 176
  %29 = load i32, ptr %28, align 8, !tbaa !77
  %30 = sub nsw i32 %27, %29
  %31 = sitofp i32 %30 to double
  %32 = fmul double %31, 1.000000e+02
  %33 = sitofp i32 %27 to double
  %34 = fdiv double %32, %33
  %35 = tail call i32 (ptr, ...) @printf(ptr noundef nonnull dereferenceable(1) @.str.7, i32 noundef %30, double noundef %34)
  tail call void (i32, ptr, ...) @Abc_Print(i32 poison, ptr noundef nonnull @.str.8, ptr noundef nonnull @.str.9)
  %36 = getelementptr inbounds nuw i8, ptr %0, i64 1080
  %37 = load i64, ptr %36, align 8, !tbaa !50
  %38 = sitofp i64 %37 to double
  %39 = fdiv double %38, 1.000000e+06
  tail call void (i32, ptr, ...) @Abc_Print(i32 poison, ptr noundef nonnull @.str.10, double noundef %39)
  tail call void (i32, ptr, ...) @Abc_Print(i32 poison, ptr noundef nonnull @.str.8, ptr noundef nonnull @.str.11)
  %40 = getelementptr inbounds nuw i8, ptr %0, i64 1088
  %41 = load i64, ptr %40, align 8, !tbaa !78
  %42 = sitofp i64 %41 to double
  %43 = fdiv double %42, 1.000000e+06
  tail call void (i32, ptr, ...) @Abc_Print(i32 poison, ptr noundef nonnull @.str.10, double noundef %43)
  tail call void (i32, ptr, ...) @Abc_Print(i32 poison, ptr noundef nonnull @.str.8, ptr noundef nonnull @.str.12)
  %44 = getelementptr inbounds nuw i8, ptr %0, i64 1096
  %45 = load i64, ptr %44, align 8, !tbaa !79
  %46 = sitofp i64 %45 to double
  %47 = fdiv double %46, 1.000000e+06
  tail call void (i32, ptr, ...) @Abc_Print(i32 poison, ptr noundef nonnull @.str.10, double noundef %47)
  tail call void (i32, ptr, ...) @Abc_Print(i32 poison, ptr noundef nonnull @.str.8, ptr noundef nonnull @.str.13)
  %48 = getelementptr inbounds nuw i8, ptr %0, i64 1112
  %49 = load i64, ptr %48, align 8, !tbaa !80
  %50 = sitofp i64 %49 to double
  %51 = fdiv double %50, 1.000000e+06
  tail call void (i32, ptr, ...) @Abc_Print(i32 poison, ptr noundef nonnull @.str.10, double noundef %51)
  tail call void (i32, ptr, ...) @Abc_Print(i32 poison, ptr noundef nonnull @.str.8, ptr noundef nonnull @.str.14)
  %52 = getelementptr inbounds nuw i8, ptr %0, i64 1104
  %53 = load i64, ptr %52, align 8, !tbaa !81
  %54 = sitofp i64 %53 to double
  %55 = fdiv double %54, 1.000000e+06
  tail call void (i32, ptr, ...) @Abc_Print(i32 poison, ptr noundef nonnull @.str.10, double noundef %55)
  tail call void (i32, ptr, ...) @Abc_Print(i32 poison, ptr noundef nonnull @.str.8, ptr noundef nonnull @.str.15)
  %56 = getelementptr inbounds nuw i8, ptr %0, i64 1120
  %57 = load i64, ptr %56, align 8, !tbaa !82
  %58 = sitofp i64 %57 to double
  %59 = fdiv double %58, 1.000000e+06
  tail call void (i32, ptr, ...) @Abc_Print(i32 poison, ptr noundef nonnull @.str.10, double noundef %59)
  tail call void (i32, ptr, ...) @Abc_Print(i32 poison, ptr noundef nonnull @.str.8, ptr noundef nonnull @.str.16)
  %60 = getelementptr inbounds nuw i8, ptr %0, i64 1128
  %61 = load i64, ptr %60, align 8, !tbaa !83
  %62 = sitofp i64 %61 to double
  %63 = fdiv double %62, 1.000000e+06
  tail call void (i32, ptr, ...) @Abc_Print(i32 poison, ptr noundef nonnull @.str.10, double noundef %63)
  %putchar = tail call i32 @putchar(i32 10)
  ret void
}